Certificate:
    Data:
        Version: 3 (0x2)
        Serial Number: 24 (0x18)
        Signature Algorithm: md5WithRSAEncryption
        Issuer: C=RS, ST=NA, L=Belgrade, O=Gecko/emailAddress=milos.zikic@gecko.rs
        Validity
            Not Before: Aug 26 15:57:20 2011 GMT
            Not After : Aug 23 15:57:20 2021 GMT
        Subject: C=RS, ST=NA, L=Belgrade, O=Gecko, OU=Office, CN=gecko-milosn/emailAddress=milos.zikic@gecko.rs
        Subject Public Key Info:
            Public Key Algorithm: rsaEncryption
                Public-Key: (2048 bit)
                Modulus:
                    00:d0:4c:d4:31:23:56:79:45:95:da:d4:25:31:68:
                    35:78:47:0b:ca:b4:15:68:0c:51:60:6d:1f:bf:51:
                    21:49:f7:bc:5a:cc:d2:7e:fd:ac:75:79:f1:ab:bd:
                    25:96:fc:cd:4f:f9:46:3f:0a:57:ba:ba:3f:a9:12:
                    f1:5e:4f:4f:e4:10:64:16:66:48:20:6d:d2:c3:87:
                    5d:58:2c:9b:8c:15:57:4c:40:bb:b3:c6:57:a4:47:
                    98:7a:ee:71:1e:d1:13:e6:78:f2:9e:12:98:92:d7:
                    26:87:88:35:3c:e1:53:ae:ee:b9:00:b1:37:65:43:
                    87:c2:ca:15:93:e1:d3:66:e2:f5:96:01:67:99:17:
                    d9:f2:b6:a1:36:0e:7a:da:aa:09:2f:07:23:77:ac:
                    fe:84:59:6b:5b:a0:b7:6c:36:e0:e8:b7:0b:a2:f1:
                    f8:55:01:27:dd:14:db:25:c6:cf:56:17:c8:14:f1:
                    df:29:ff:7b:ce:aa:5d:36:3f:95:5d:f3:37:98:57:
                    9a:6c:a8:3b:98:05:34:c8:6b:ec:ee:b8:ff:c1:66:
                    71:9a:3b:c6:e3:5a:41:1b:a6:14:4a:b3:e9:a9:08:
                    4c:c3:0b:07:af:b6:62:e6:78:ed:f6:7e:93:90:e9:
                    52:18:52:08:dd:35:dd:73:d7:18:82:c0:e7:b4:f2:
                    ea:47
                Exponent: 65537 (0x10001)
        X509v3 extensions:
            X509v3 Basic Constraints: 
                CA:FALSE
            Netscape Comment: 
                OpenSSL Generated Certificate
            X509v3 Subject Key Identifier: 
                2F:83:11:F9:60:D3:CA:83:56:5E:7F:6C:AC:25:24:AB:08:09:07:E3
            X509v3 Authority Key Identifier: 
                keyid:F6:A7:BB:F3:03:83:2C:C2:A9:69:FA:41:08:F0:47:A3:7D:58:7B:EF
                DirName:/C=RS/ST=NA/L=Belgrade/O=Gecko/emailAddress=milos.zikic@gecko.rs
                serial:E2:62:0F:C8:BD:87:79:23

    Signature Algorithm: md5WithRSAEncryption
        5f:ba:8c:ea:a2:2d:c6:a8:40:38:b0:94:c3:11:22:1e:bc:88:
        29:52:83:84:12:f4:a7:b2:ce:9c:1c:e9:4c:eb:9a:ca:e1:e0:
        77:dd:f1:9c:58:b9:e3:16:f2:e8:f4:60:71:3e:5f:b3:d3:93:
        e3:f6:ef:ca:d2:a0:5b:94:8b:a1:c2:93:dd:6d:cd:5d:14:d0:
        b6:f0:74:50:5e:72:46:c4:b5:80:bb:ba:16:78:5b:cb:ad:55:
        4e:50:92:ed:77:71:6d:14:72:dc:eb:05:92:f5:f2:72:9c:5f:
        5d:eb:f0:8a:6f:43:73:3f:1a:bd:e1:4a:8c:c5:8d:66:4a:70:
        55:77:10:dc:b0:aa:2b:05:3d:a4:c2:19:68:18:c1:e8:96:d6:
        6a:e9:63:6e:77:cc:ca:c1:ef:60:28:44:ca:a4:68:66:0a:bf:
        60:c0:58:16:78:d9:ab:dc:79:d9:4f:05:31:81:3d:93:46:9f:
        5b:3b:e4:40:e4:b9:05:30:55:17:c3:2f:6a:f9:1e:0c:2a:ff:
        b8:ff:7c:7b:4b:a5:a1:fd:f1:62:cb:3e:4d:03:6e:64:c8:5e:
        9c:83:01:0f:85:2f:c8:4d:8c:be:19:11:5e:66:6a:78:5f:80:
        12:ce:83:9d:7e:bc:ea:50:a6:4c:19:4d:14:89:54:0f:3f:aa:
        25:6a:ed:37
-----BEGIN CERTIFICATE-----
MIIEWzCCA0OgAwIBAgIBGDANBgkqhkiG9w0BAQQFADBiMQswCQYDVQQGEwJSUzEL
MAkGA1UECBMCTkExETAPBgNVBAcTCEJlbGdyYWRlMQ4wDAYDVQQKEwVHZWNrbzEj
MCEGCSqGSIb3DQEJARYUbWlsb3MuemlraWNAZ2Vja28ucnMwHhcNMTEwODI2MTU1
NzIwWhcNMjEwODIzMTU1NzIwWjCBijELMAkGA1UEBhMCUlMxCzAJBgNVBAgTAk5B
MREwDwYDVQQHEwhCZWxncmFkZTEOMAwGA1UEChMFR2Vja28xDzANBgNVBAsTBk9m
ZmljZTEVMBMGA1UEAxMMZ2Vja28tbWlsb3NuMSMwIQYJKoZIhvcNAQkBFhRtaWxv
cy56aWtpY0BnZWNrby5yczCCASIwDQYJKoZIhvcNAQEBBQADggEPADCCAQoCggEB
ANBM1DEjVnlFldrUJTFoNXhHC8q0FWgMUWBtH79RIUn3vFrM0n79rHV58au9JZb8
zU/5Rj8KV7q6P6kS8V5PT+QQZBZmSCBt0sOHXVgsm4wVV0xAu7PGV6RHmHrucR7R
E+Z48p4SmJLXJoeINTzhU67uuQCxN2VDh8LKFZPh02bi9ZYBZ5kX2fK2oTYOetqq
CS8HI3es/oRZa1ugt2w24Oi3C6Lx+FUBJ90U2yXGz1YXyBTx3yn/e86qXTY/lV3z
N5hXmmyoO5gFNMhr7O64/8FmcZo7xuNaQRumFEqz6akITMMLB6+2YuZ47fZ+k5Dp
UhhSCN013XPXGILA57Ty6kcCAwEAAaOB8jCB7zAJBgNVHRMEAjAAMCwGCWCGSAGG
+EIBDQQfFh1PcGVuU1NMIEdlbmVyYXRlZCBDZXJ0aWZpY2F0ZTAdBgNVHQ4EFgQU
L4MR+WDTyoNWXn9srCUkqwgJB+MwgZQGA1UdIwSBjDCBiYAU9qe78wODLMKpafpB
CPBHo31Ye++hZqRkMGIxCzAJBgNVBAYTAlJTMQswCQYDVQQIEwJOQTERMA8GA1UE
BxMIQmVsZ3JhZGUxDjAMBgNVBAoTBUdlY2tvMSMwIQYJKoZIhvcNAQkBFhRtaWxv
cy56aWtpY0BnZWNrby5yc4IJAOJiD8i9h3kjMA0GCSqGSIb3DQEBBAUAA4IBAQBf
uozqoi3GqEA4sJTDESIevIgpUoOEEvSnss6cHOlM65rK4eB33fGcWLnjFvLo9GBx
Pl+z05Pj9u/K0qBblIuhwpPdbc1dFNC28HRQXnJGxLWAu7oWeFvLrVVOUJLtd3Ft
FHLc6wWS9fJynF9d6/CKb0NzPxq94UqMxY1mSnBVdxDcsKorBT2kwhloGMHoltZq
6WNud8zKwe9gKETKpGhmCr9gwFgWeNmr3HnZTwUxgT2TRp9bO+RA5LkFMFUXwy9q
+R4MKv+4/3x7S6Wh/fFiyz5NA25kyF6cgwEPhS/ITYy+GRFeZmp4X4ASzoOdfrzq
UKZMGU0UiVQPP6olau03
-----END CERTIFICATE-----
